; Function Attrs: mustprogress uwtable
define noundef nonnull align 8 dereferenceable(8) ptr @_ZN2cv4gapi4s11nrsERNS1_8IIStreamERNS0_3wip4draw6CircleE(ptr noundef nonnull align 8 dereferenceable(8) %0, ptr noundef nonnull align 8 dereferenceable(60) %1) local_unnamed_addr #3 {
  %3 = load ptr, ptr %0, align 8, !tbaa !8
  %4 = getelementptr inbounds nuw i8, ptr %3, i64 64
  %5 = load ptr, ptr %4, align 8
  %6 = tail call noundef nonnull align 8 dereferenceable(8) ptr %5(ptr noundef nonnull align 8 dereferenceable(8) %0, ptr noundef nonnull align 4 dereferenceable(8) %1)
  %7 = getelementptr inbounds nuw i8, ptr %1, i64 4
  %8 = load ptr, ptr %6, align 8, !tbaa !8
  %9 = getelementptr inbounds nuw i8, ptr %8, i64 64
  %10 = load ptr, ptr %9, align 8
  %11 = tail call noundef nonnull align 8 dereferenceable(8) ptr %10(ptr noundef nonnull align 8 dereferenceable(8) %6, ptr noundef nonnull align 4 dereferenceable(4) %7)
  %12 = getelementptr inbounds nuw i8, ptr %1, i64 16
  %13 = load ptr, ptr %11, align 8, !tbaa !8
  %14 = getelementptr inbounds nuw i8, ptr %13, i64 80
  %15 = load ptr, ptr %14, align 8
  %16 = tail call noundef nonnull align 8 dereferenceable(8) ptr %15(ptr noundef nonnull align 8 dereferenceable(8) %11, ptr noundef nonnull align 8 dereferenceable(32) %12)
  %17 = getelementptr inbounds nuw i8, ptr %1, i64 24
  %18 = load ptr, ptr %16, align 8, !tbaa !8
  %19 = getelementptr inbounds nuw i8, ptr %18, i64 80
  %20 = load ptr, ptr %19, align 8
  %21 = tail call noundef nonnull align 8 dereferenceable(8) ptr %20(ptr noundef nonnull align 8 dereferenceable(8) %16, ptr noundef nonnull align 8 dereferenceable(8) %17)
  %22 = getelementptr inbounds nuw i8, ptr %1, i64 32
  %23 = load ptr, ptr %21, align 8, !tbaa !8
  %24 = getelementptr inbounds nuw i8, ptr %23, i64 80
  %25 = load ptr, ptr %24, align 8
  %26 = tail call noundef nonnull align 8 dereferenceable(8) ptr %25(ptr noundef nonnull align 8 dereferenceable(8) %21, ptr noundef nonnull align 8 dereferenceable(8) %22)
  %27 = getelementptr inbounds nuw i8, ptr %1, i64 40
  %28 = load ptr, ptr %26, align 8, !tbaa !8
  %29 = getelementptr inbounds nuw i8, ptr %28, i64 80
  %30 = load ptr, ptr %29, align 8
  %31 = tail call noundef nonnull align 8 dereferenceable(8) ptr %30(ptr noundef nonnull align 8 dereferenceable(8) %26, ptr noundef nonnull align 8 dereferenceable(8) %27)
  %32 = getelementptr inbounds nuw i8, ptr %1, i64 52
  %33 = load ptr, ptr %31, align 8, !tbaa !8
  %34 = getelementptr inbounds nuw i8, ptr %33, i64 64
  %35 = load ptr, ptr %34, align 8
  %36 = tail call noundef nonnull align 8 dereferenceable(8) ptr %35(ptr noundef nonnull align 8 dereferenceable(8) %31, ptr noundef nonnull align 4 dereferenceable(4) %32)
  %37 = getelementptr inbounds nuw i8, ptr %1, i64 8
  %38 = load ptr, ptr %36, align 8, !tbaa !8
  %39 = getelementptr inbounds nuw i8, ptr %38, i64 64
  %40 = load ptr, ptr %39, align 8
  %41 = tail call noundef nonnull align 8 dereferenceable(8) ptr %40(ptr noundef nonnull align 8 dereferenceable(8) %36, ptr noundef nonnull align 4 dereferenceable(4) %37)
  %42 = getelementptr inbounds nuw i8, ptr %1, i64 56
  %43 = load ptr, ptr %41, align 8, !tbaa !8
  %44 = getelementptr inbounds nuw i8, ptr %43, i64 64
  %45 = load ptr, ptr %44, align 8
  %46 = tail call noundef nonnull align 8 dereferenceable(8) ptr %45(ptr noundef nonnull align 8 dereferenceable(8) %41, ptr noundef nonnull align 4 dereferenceable(4) %42)
  %47 = getelementptr inbounds nuw i8, ptr %1, i64 48
  %48 = load ptr, ptr %46, align 8, !tbaa !8
  %49 = getelementptr inbounds nuw i8, ptr %48, i64 64
  %50 = load ptr, ptr %49, align 8
  %51 = tail call noundef nonnull align 8 dereferenceable(8) ptr %50(ptr noundef nonnull align 8 dereferenceable(8) %46, ptr noundef nonnull align 4 dereferenceable(4) %47)
  ret ptr %51
}